#include <math.h>
#include <stdio.h>
#include <stdlib.h>
#include <string.h>

int main()
{
	int i,n;
	scanf("%d\n",&n);
	for(i=1;i<=n;i++)
	{char word[32],word1[30]="",c;
	int t;
	scanf("%s",word);
	t=strlen(word);
	c=word[t-1];
    if(c=='g')
	{strncpy(word1,word,t-3);
		printf("%s\n",word1);
	}
	else
	{strncpy(word1,word,t-2);
	printf("%s\n",word1);}
	}
	return 0;
}
