; ModuleID = '57/2545.c'
source_filename = "57/2545.c"
target datalayout = "e-m:e-p270:32:32-p271:32:32-p272:64:64-i64:64-f80:128-n8:16:32:64-S128"
target triple = "x86_64-pc-linux-gnu"

@.str = private unnamed_addr constant [4 x i8] c"%d\0A\00", align 1
@.str.1 = private unnamed_addr constant [3 x i8] c"%s\00", align 1
@.str.2 = private unnamed_addr constant [4 x i8] c"%s\0A\00", align 1

; Function Attrs: noinline nounwind uwtable
define dso_local i32 @main() #0 {
  %1 = alloca i32, align 4
  %2 = alloca i32, align 4
  %3 = alloca i32, align 4
  %4 = alloca [32 x i8], align 16
  %5 = alloca [30 x i8], align 16
  %6 = alloca i8, align 1
  %7 = alloca i32, align 4
  store i32 0, i32* %1, align 4
  %8 = call i32 (i8*, ...) @__isoc99_scanf(i8* getelementptr inbounds ([4 x i8], [4 x i8]* @.str, i64 0, i64 0), i32* %3)
  store i32 1, i32* %2, align 4
  br label %9

9:                                                ; preds = %47, %0
  %10 = load i32, i32* %2, align 4
  %11 = load i32, i32* %3, align 4
  %12 = icmp sle i32 %10, %11
  br i1 %12, label %13, label %50

13:                                               ; preds = %9
  %14 = bitcast [30 x i8]* %5 to i8*
  call void @llvm.memset.p0i8.i64(i8* align 16 %14, i8 0, i64 30, i1 false)
  %15 = getelementptr inbounds [32 x i8], [32 x i8]* %4, i64 0, i64 0
  %16 = call i32 (i8*, ...) @__isoc99_scanf(i8* getelementptr inbounds ([3 x i8], [3 x i8]* @.str.1, i64 0, i64 0), i8* %15)
  %17 = getelementptr inbounds [32 x i8], [32 x i8]* %4, i64 0, i64 0
  %18 = call i64 @strlen(i8* %17) #5
  %19 = trunc i64 %18 to i32
  store i32 %19, i32* %7, align 4
  %20 = load i32, i32* %7, align 4
  %21 = sub nsw i32 %20, 1
  %22 = sext i32 %21 to i64
  %23 = getelementptr inbounds [32 x i8], [32 x i8]* %4, i64 0, i64 %22
  %24 = load i8, i8* %23, align 1
  store i8 %24, i8* %6, align 1
  %25 = load i8, i8* %6, align 1
  %26 = sext i8 %25 to i32
  %27 = icmp eq i32 %26, 103
  br i1 %27, label %28, label %37

28:                                               ; preds = %13
  %29 = getelementptr inbounds [30 x i8], [30 x i8]* %5, i64 0, i64 0
  %30 = getelementptr inbounds [32 x i8], [32 x i8]* %4, i64 0, i64 0
  %31 = load i32, i32* %7, align 4
  %32 = sub nsw i32 %31, 3
  %33 = sext i32 %32 to i64
  %34 = call i8* @strncpy(i8* %29, i8* %30, i64 %33) #6
  %35 = getelementptr inbounds [30 x i8], [30 x i8]* %5, i64 0, i64 0
  %36 = call i32 (i8*, ...) @printf(i8* getelementptr inbounds ([4 x i8], [4 x i8]* @.str.2, i64 0, i64 0), i8* %35)
  br label %46

37:                                               ; preds = %13
  %38 = getelementptr inbounds [30 x i8], [30 x i8]* %5, i64 0, i64 0
  %39 = getelementptr inbounds [32 x i8], [32 x i8]* %4, i64 0, i64 0
  %40 = load i32, i32* %7, align 4
  %41 = sub nsw i32 %40, 2
  %42 = sext i32 %41 to i64
  %43 = call i8* @strncpy(i8* %38, i8* %39, i64 %42) #6
  %44 = getelementptr inbounds [30 x i8], [30 x i8]* %5, i64 0, i64 0
  %45 = call i32 (i8*, ...) @printf(i8* getelementptr inbounds ([4 x i8], [4 x i8]* @.str.2, i64 0, i64 0), i8* %44)
  br label %46

46:                                               ; preds = %37, %28
  br label %47

47:                                               ; preds = %46
  %48 = load i32, i32* %2, align 4
  %49 = add nsw i32 %48, 1
  store i32 %49, i32* %2, align 4
  br label %9

50:                                               ; preds = %9
  ret i32 0
}

declare dso_local i32 @__isoc99_scanf(i8*, ...) #1

; Function Attrs: argmemonly nounwind willreturn
declare void @llvm.memset.p0i8.i64(i8* nocapture writeonly, i8, i64, i1 immarg) #2

; Function Attrs: nounwind readonly
declare dso_local i64 @strlen(i8*) #3

; Function Attrs: nounwind
declare dso_local i8* @strncpy(i8*, i8*, i64) #4

declare dso_local i32 @printf(i8*, ...) #1


!llvm.module.flags = !{!0}
!llvm.ident = !{!1}

!0 = !{i32 1, !"wchar_size", i32 4}
!1 = !{!"clang version 10.0.0-4ubuntu1 "}
