; ModuleID = 'source-C-CXX/56/2545.c'
source_filename = "source-C-CXX/56/2545.c"
target datalayout = "e-m:e-p270:32:32-p271:32:32-p272:64:64-i64:64-f80:128-n8:16:32:64-S128"
target triple = "x86_64-pc-linux-gnu"

@.str = private unnamed_addr constant [4 x i8] c"%d\0A\00", align 1
@.str.1 = private unnamed_addr constant [3 x i8] c"%s\00", align 1

; Function Attrs: nofree nounwind sspstrong uwtable
define dso_local i32 @main() local_unnamed_addr #0 {
  %1 = alloca i32, align 4
  %2 = alloca [32 x i8], align 16
  %3 = alloca [30 x i8], align 16
  %4 = bitcast i32* %1 to i8*
  call void @llvm.lifetime.start.p0i8(i64 4, i8* nonnull %4) #7
  %5 = call i32 (i8*, ...) @__isoc99_scanf(i8* getelementptr inbounds ([4 x i8], [4 x i8]* @.str, i64 0, i64 0), i32* nonnull %1)
  %6 = getelementptr inbounds [32 x i8], [32 x i8]* %2, i64 0, i64 0
  %7 = getelementptr inbounds [30 x i8], [30 x i8]* %3, i64 0, i64 0
  %8 = load i32, i32* %1, align 4, !tbaa !5
  %9 = icmp slt i32 %8, 1
  br i1 %9, label %28, label %10

10:                                               ; preds = %0, %10
  %11 = phi i32 [ %25, %10 ], [ 1, %0 ]
  call void @llvm.lifetime.start.p0i8(i64 32, i8* nonnull %6) #7
  call void @llvm.lifetime.start.p0i8(i64 30, i8* nonnull %7) #7
  call void @llvm.memset.p0i8.i64(i8* noundef nonnull align 16 dereferenceable(30) %7, i8 0, i64 30, i1 false)
  %12 = call i32 (i8*, ...) @__isoc99_scanf(i8* getelementptr inbounds ([3 x i8], [3 x i8]* @.str.1, i64 0, i64 0), i8* nonnull %6)
  %13 = call i64 @strlen(i8* noundef nonnull %6) #8
  %14 = shl i64 %13, 32
  %15 = add i64 %14, -4294967296
  %16 = ashr exact i64 %15, 32
  %17 = getelementptr inbounds [32 x i8], [32 x i8]* %2, i64 0, i64 %16
  %18 = load i8, i8* %17, align 1, !tbaa !9
  %19 = icmp eq i8 %18, 103
  %20 = select i1 %19, i64 -12884901888, i64 -8589934592
  %21 = add i64 %14, %20
  %22 = ashr exact i64 %21, 32
  %23 = call i8* @strncpy(i8* noundef nonnull %7, i8* nonnull %6, i64 %22) #7
  %24 = call i32 @puts(i8* nonnull %7)
  call void @llvm.lifetime.end.p0i8(i64 30, i8* nonnull %7) #7
  call void @llvm.lifetime.end.p0i8(i64 32, i8* nonnull %6) #7
  %25 = add nuw nsw i32 %11, 1
  %26 = load i32, i32* %1, align 4, !tbaa !5
  %27 = icmp slt i32 %11, %26
  br i1 %27, label %10, label %28, !llvm.loop !10

28:                                               ; preds = %10, %0
  call void @llvm.lifetime.end.p0i8(i64 4, i8* nonnull %4) #7
  ret i32 0
}

; Function Attrs: argmemonly mustprogress nofree nosync nounwind willreturn
declare void @llvm.lifetime.start.p0i8(i64 immarg, i8* nocapture) #1

; Function Attrs: nofree nounwind
declare noundef i32 @__isoc99_scanf(i8* nocapture noundef readonly, ...) local_unnamed_addr #2

; Function Attrs: argmemonly mustprogress nofree nounwind willreturn writeonly
declare void @llvm.memset.p0i8.i64(i8* nocapture writeonly, i8, i64, i1 immarg) #3

; Function Attrs: argmemonly mustprogress nofree nounwind readonly willreturn
declare i64 @strlen(i8* nocapture) local_unnamed_addr #4

; Function Attrs: argmemonly mustprogress nofree nounwind willreturn
declare i8* @strncpy(i8* noalias returned writeonly, i8* noalias nocapture readonly, i64) local_unnamed_addr #5

; Function Attrs: argmemonly mustprogress nofree nosync nounwind willreturn
declare void @llvm.lifetime.end.p0i8(i64 immarg, i8* nocapture) #1

; Function Attrs: nofree nounwind
declare noundef i32 @puts(i8* nocapture noundef readonly) local_unnamed_addr #6


!llvm.module.flags = !{!0, !1, !2, !3}
!llvm.ident = !{!4}

!0 = !{i32 1, !"wchar_size", i32 4}
!1 = !{i32 7, !"PIC Level", i32 2}
!2 = !{i32 7, !"PIE Level", i32 2}
!3 = !{i32 7, !"uwtable", i32 1}
!4 = !{!"clang version 13.0.0"}
!5 = !{!6, !6, i64 0}
!6 = !{!"int", !7, i64 0}
!7 = !{!"omnipotent char", !8, i64 0}
!8 = !{!"Simple C/C++ TBAA"}
!9 = !{!7, !7, i64 0}
!10 = distinct !{!10, !11}
!11 = !{!"llvm.loop.mustprogress"}
